target datalayout = "e-m:e-p270:32:32-p271:32:32-p272:64:64-i64:64-i128:128-f80:128-n8:16:32:64-S128"
target triple = "x86_64-pc-linux-gnu"

%struct.jit_State = type { %struct.GCtrace, ptr, ptr, ptr, ptr, ptr, ptr, i32, i32, i32, i8, i8, %struct.IRType1, i8, %struct.FoldState, ptr, i32, i32, i32, i32, i32, i32, i32, [1 x i32], [5 x %union.TValue], [3 x %union.TValue], ptr, i32, i32, i32, i32, ptr, ptr, i32, i32, i8, ptr, i32, i32, i16, [101 x i16], [258 x i32], [15 x i32], [16 x ptr], [64 x %struct.HotPenalty], i32, [16 x %struct.BPropEntry], i32, %struct.ScEvEntry, ptr, i32, i32, i32, ptr, i32, i32, ptr, ptr, ptr, i64, i64, %union.TValue, ptr, i32, i32 }
%struct.GCtrace = type { %struct.GCRef, i8, i8, i16, i32, i32, %struct.GCRef, ptr, i32, i32, ptr, ptr, %struct.GCRef, %struct.MRef, i32, i32, ptr, i32, i16, i16, i16, i16, i16, i16, i16, i8, i8, i8, i8 }
%struct.GCRef = type { i64 }
%struct.MRef = type { i64 }
%struct.IRType1 = type { i8 }
%struct.FoldState = type { %union.IRIns, [2 x %union.IRIns], [2 x %union.IRIns] }
%union.IRIns = type { %struct.GCRef }
%struct.HotPenalty = type { %struct.MRef, i16, i16 }
%struct.BPropEntry = type { i16, i16, i32 }
%struct.ScEvEntry = type { %struct.MRef, i16, i16, i16, i16, %struct.IRType1, i8 }
%union.TValue = type { i64 }
%struct.anon = type { i16, i16, i16, i16 }
%struct.__va_list_tag = type { i32, i32, ptr, ptr }
%struct.CCallInfo = type { ptr, i32 }

; Function Attrs: alwaysinline nounwind uwtable
define internal void @lj_ir_set_(ptr noundef %0, i16 noundef zeroext %1, i16 noundef zeroext %2, i16 noundef zeroext %3) #5 {
  %5 = alloca ptr, align 8
  %6 = alloca i16, align 2
  %7 = alloca i16, align 2
  %8 = alloca i16, align 2
  store ptr %0, ptr %5, align 8, !tbaa !4
  store i16 %1, ptr %6, align 2, !tbaa !36
  store i16 %2, ptr %7, align 2, !tbaa !36
  store i16 %3, ptr %8, align 2, !tbaa !36
  %9 = load i16, ptr %6, align 2, !tbaa !36
  %10 = load ptr, ptr %5, align 8, !tbaa !4
  %11 = getelementptr inbounds nuw %struct.jit_State, ptr %10, i32 0, i32 14
  %12 = getelementptr inbounds nuw %struct.FoldState, ptr %11, i32 0, i32 0
  %13 = getelementptr inbounds nuw %struct.anon, ptr %12, i32 0, i32 2
  store i16 %9, ptr %13, align 4, !tbaa !35
  %14 = load i16, ptr %7, align 2, !tbaa !36
  %15 = load ptr, ptr %5, align 8, !tbaa !4
  %16 = getelementptr inbounds nuw %struct.jit_State, ptr %15, i32 0, i32 14
  %17 = getelementptr inbounds nuw %struct.FoldState, ptr %16, i32 0, i32 0
  %18 = getelementptr inbounds nuw %struct.anon, ptr %17, i32 0, i32 0
  store i16 %14, ptr %18, align 8, !tbaa !35
  %19 = load i16, ptr %8, align 2, !tbaa !36
  %20 = load ptr, ptr %5, align 8, !tbaa !4
  %21 = getelementptr inbounds nuw %struct.jit_State, ptr %20, i32 0, i32 14
  %22 = getelementptr inbounds nuw %struct.FoldState, ptr %21, i32 0, i32 0
  %23 = getelementptr inbounds nuw %struct.anon, ptr %22, i32 0, i32 1
  store i16 %19, ptr %23, align 2, !tbaa !35
  ret void
}

; Function Attrs: nounwind uwtable
define hidden i32 @lj_ir_call(ptr noundef %0, i32 noundef %1, ...) #3 {
  %3 = alloca ptr, align 8
  %4 = alloca i32, align 4
  %5 = alloca ptr, align 8
  %6 = alloca i32, align 4
  %7 = alloca i32, align 4
  %8 = alloca [1 x %struct.__va_list_tag], align 16
  store ptr %0, ptr %3, align 8, !tbaa !4
  store i32 %1, ptr %4, align 4, !tbaa !32
  call void @llvm.lifetime.start.p0(i64 8, ptr %5) #10
  %9 = load i32, ptr %4, align 4, !tbaa !32
  %10 = zext i32 %9 to i64
  %11 = getelementptr inbounds nuw [114 x %struct.CCallInfo], ptr @lj_ir_callinfo, i64 0, i64 %10
  store ptr %11, ptr %5, align 8, !tbaa !41
  call void @llvm.lifetime.start.p0(i64 4, ptr %6) #10
  %12 = load ptr, ptr %5, align 8, !tbaa !41
  %13 = getelementptr inbounds nuw %struct.CCallInfo, ptr %12, i32 0, i32 1
  %14 = load i32, ptr %13, align 8, !tbaa !43
  %15 = and i32 %14, 255
  store i32 %15, ptr %6, align 4, !tbaa !32
  call void @llvm.lifetime.start.p0(i64 4, ptr %7) #10
  store i32 32767, ptr %7, align 4, !tbaa !32
  call void @llvm.lifetime.start.p0(i64 24, ptr %8) #10
  %16 = getelementptr inbounds [1 x %struct.__va_list_tag], ptr %8, i64 0, i64 0
  call void @llvm.va_start.p0(ptr %16)
  %17 = load ptr, ptr %5, align 8, !tbaa !41
  %18 = getelementptr inbounds nuw %struct.CCallInfo, ptr %17, i32 0, i32 1
  %19 = load i32, ptr %18, align 8, !tbaa !43
  %20 = and i32 %19, 256
  %21 = icmp ne i32 %20, 0
  br i1 %21, label %22, label %25

22:                                               ; preds = %2
  %23 = load i32, ptr %6, align 4, !tbaa !32
  %24 = add i32 %23, -1
  store i32 %24, ptr %6, align 4, !tbaa !32
  br label %25

25:                                               ; preds = %22, %2
  %26 = load i32, ptr %6, align 4, !tbaa !32
  %27 = icmp ugt i32 %26, 0
  br i1 %27, label %28, label %45

28:                                               ; preds = %25
  %29 = getelementptr inbounds [1 x %struct.__va_list_tag], ptr %8, i64 0, i64 0
  %30 = getelementptr inbounds nuw %struct.__va_list_tag, ptr %29, i32 0, i32 0
  %31 = load i32, ptr %30, align 16
  %32 = icmp ule i32 %31, 40
  br i1 %32, label %33, label %38

33:                                               ; preds = %28
  %34 = getelementptr inbounds nuw %struct.__va_list_tag, ptr %29, i32 0, i32 3
  %35 = load ptr, ptr %34, align 16
  %36 = getelementptr i8, ptr %35, i32 %31
  %37 = add i32 %31, 8
  store i32 %37, ptr %30, align 16
  br label %42

38:                                               ; preds = %28
  %39 = getelementptr inbounds nuw %struct.__va_list_tag, ptr %29, i32 0, i32 2
  %40 = load ptr, ptr %39, align 8
  %41 = getelementptr i8, ptr %40, i32 8
  store ptr %41, ptr %39, align 8
  br label %42

42:                                               ; preds = %38, %33
  %43 = phi ptr [ %36, %33 ], [ %40, %38 ]
  %44 = load i32, ptr %43, align 4, !tbaa !32
  store i32 %44, ptr %7, align 4, !tbaa !32
  br label %45

45:                                               ; preds = %42, %25
  br label %46

46:                                               ; preds = %67, %45
  %47 = load i32, ptr %6, align 4, !tbaa !32
  %48 = add i32 %47, -1
  store i32 %48, ptr %6, align 4, !tbaa !32
  %49 = icmp ugt i32 %47, 1
  br i1 %49, label %50, label %73

50:                                               ; preds = %46
  %51 = load ptr, ptr %3, align 8, !tbaa !4
  %52 = load i32, ptr %7, align 4, !tbaa !32
  %53 = trunc i32 %52 to i16
  %54 = getelementptr inbounds [1 x %struct.__va_list_tag], ptr %8, i64 0, i64 0
  %55 = getelementptr inbounds nuw %struct.__va_list_tag, ptr %54, i32 0, i32 0
  %56 = load i32, ptr %55, align 16
  %57 = icmp ule i32 %56, 40
  br i1 %57, label %58, label %63

58:                                               ; preds = %50
  %59 = getelementptr inbounds nuw %struct.__va_list_tag, ptr %54, i32 0, i32 3
  %60 = load ptr, ptr %59, align 16
  %61 = getelementptr i8, ptr %60, i32 %56
  %62 = add i32 %56, 8
  store i32 %62, ptr %55, align 16
  br label %67

63:                                               ; preds = %50
  %64 = getelementptr inbounds nuw %struct.__va_list_tag, ptr %54, i32 0, i32 2
  %65 = load ptr, ptr %64, align 8
  %66 = getelementptr i8, ptr %65, i32 8
  store ptr %66, ptr %64, align 8
  br label %67

67:                                               ; preds = %63, %58
  %68 = phi ptr [ %61, %58 ], [ %65, %63 ]
  %69 = load i32, ptr %68, align 4, !tbaa !32
  %70 = trunc i32 %69 to i16
  call void @lj_ir_set_(ptr noundef %51, i16 noundef zeroext 25600, i16 noundef zeroext %53, i16 noundef zeroext %70)
  %71 = load ptr, ptr %3, align 8, !tbaa !4
  %72 = call i32 @lj_opt_fold(ptr noundef %71)
  store i32 %72, ptr %7, align 4, !tbaa !32
  br label %46, !llvm.loop !45

73:                                               ; preds = %46
  %74 = getelementptr inbounds [1 x %struct.__va_list_tag], ptr %8, i64 0, i64 0
  call void @llvm.va_end.p0(ptr %74)
  %75 = load ptr, ptr %5, align 8, !tbaa !41
  %76 = getelementptr inbounds nuw %struct.CCallInfo, ptr %75, i32 0, i32 1
  %77 = load i32, ptr %76, align 8, !tbaa !43
  %78 = lshr i32 %77, 24
  %79 = icmp eq i32 %78, 98
  br i1 %79, label %80, label %83

80:                                               ; preds = %73
  %81 = load ptr, ptr %3, align 8, !tbaa !4
  %82 = getelementptr inbounds nuw %struct.jit_State, ptr %81, i32 0, i32 11
  store i8 1, ptr %82, align 1, !tbaa !47
  br label %83

83:                                               ; preds = %80, %73
  %84 = load ptr, ptr %3, align 8, !tbaa !4
  %85 = load ptr, ptr %5, align 8, !tbaa !41
  %86 = getelementptr inbounds nuw %struct.CCallInfo, ptr %85, i32 0, i32 1
  %87 = load i32, ptr %86, align 8, !tbaa !43
  %88 = lshr i32 %87, 16
  %89 = trunc i32 %88 to i16
  %90 = load i32, ptr %7, align 4, !tbaa !32
  %91 = trunc i32 %90 to i16
  %92 = load i32, ptr %4, align 4, !tbaa !32
  %93 = trunc i32 %92 to i16
  call void @lj_ir_set_(ptr noundef %84, i16 noundef zeroext %89, i16 noundef zeroext %91, i16 noundef zeroext %93)
  %94 = load ptr, ptr %3, align 8, !tbaa !4
  %95 = call i32 @lj_opt_fold(ptr noundef %94)
  call void @llvm.lifetime.end.p0(i64 24, ptr %8) #10
  call void @llvm.lifetime.end.p0(i64 4, ptr %7) #10
  call void @llvm.lifetime.end.p0(i64 4, ptr %6) #10
  call void @llvm.lifetime.end.p0(i64 8, ptr %5) #10
  ret i32 %95
}