; Function Attrs: nounwind uwtable
define hidden i32 @lj_ir_call(ptr noundef initializes((184, 190)) %0, i32 noundef %1, ...) local_unnamed_addr #6 {
  %3 = alloca [1 x %struct.__va_list_tag], align 16
  %4 = zext i32 %1 to i64
  %5 = getelementptr inbounds nuw [114 x %struct.CCallInfo], ptr @lj_ir_callinfo, i64 0, i64 %4, i32 1
  %6 = load i32, ptr %5, align 8, !tbaa !36
  %7 = and i32 %6, 255
  call void @llvm.lifetime.start.p0(i64 24, ptr nonnull %3) #13
  call void @llvm.va_start.p0(ptr nonnull %3)
  %8 = shl i32 %6, 23
  %sext = ashr i32 %8, 31
  %spec.select = add nsw i32 %sext, %7
  %.not19 = icmp eq i32 %spec.select, 0
  br i1 %.not19, label %._crit_edge, label %9

9:                                                ; preds = %2
  %10 = load i32, ptr %3, align 16
  %11 = icmp ult i32 %10, 41
  br i1 %11, label %12, label %18

12:                                               ; preds = %9
  %13 = getelementptr inbounds nuw i8, ptr %3, i64 16
  %14 = load ptr, ptr %13, align 16
  %15 = zext nneg i32 %10 to i64
  %16 = getelementptr i8, ptr %14, i64 %15
  %17 = add nuw nsw i32 %10, 8
  store i32 %17, ptr %3, align 16
  br label %22

18:                                               ; preds = %9
  %19 = getelementptr inbounds nuw i8, ptr %3, i64 8
  %20 = load ptr, ptr %19, align 8
  %21 = getelementptr i8, ptr %20, i64 8
  store ptr %21, ptr %19, align 8
  br label %22

22:                                               ; preds = %12, %18
  %23 = phi ptr [ %16, %12 ], [ %20, %18 ]
  %24 = load i32, ptr %23, align 4, !tbaa !38
  %.not = icmp eq i32 %spec.select, 1
  br i1 %.not, label %._crit_edge, label %.lr.ph

.lr.ph:                                           ; preds = %22
  %25 = getelementptr inbounds nuw i8, ptr %3, i64 8
  %26 = getelementptr inbounds nuw i8, ptr %3, i64 16
  %27 = getelementptr inbounds nuw i8, ptr %0, i64 184
  %28 = getelementptr inbounds nuw i8, ptr %0, i64 188
  %29 = getelementptr inbounds nuw i8, ptr %0, i64 186
  br label %30

30:                                               ; preds = %.lr.ph, %43
  %.in = phi i32 [ %spec.select, %.lr.ph ], [ %31, %43 ]
  %.120 = phi i32 [ %24, %.lr.ph ], [ %47, %43 ]
  %31 = add i32 %.in, -1
  %32 = trunc i32 %.120 to i16
  %33 = load i32, ptr %3, align 16
  %34 = icmp ult i32 %33, 41
  br i1 %34, label %35, label %40

35:                                               ; preds = %30
  %36 = load ptr, ptr %26, align 16
  %37 = zext nneg i32 %33 to i64
  %38 = getelementptr i8, ptr %36, i64 %37
  %39 = add nuw nsw i32 %33, 8
  store i32 %39, ptr %3, align 16
  br label %43

40:                                               ; preds = %30
  %41 = load ptr, ptr %25, align 8
  %42 = getelementptr i8, ptr %41, i64 8
  store ptr %42, ptr %25, align 8
  br label %43

43:                                               ; preds = %40, %35
  %44 = phi ptr [ %38, %35 ], [ %41, %40 ]
  %45 = load i32, ptr %44, align 4, !tbaa !38
  %46 = trunc i32 %45 to i16
  store i16 25600, ptr %28, align 4, !tbaa !33
  store i16 %32, ptr %27, align 8, !tbaa !33
  store i16 %46, ptr %29, align 2, !tbaa !33
  %47 = call i32 @lj_opt_fold(ptr noundef %0) #13
  %48 = icmp ugt i32 %31, 1
  br i1 %48, label %30, label %._crit_edge, !llvm.loop !39

._crit_edge:                                      ; preds = %43, %2, %22
  %.1.lcssa = phi i32 [ %24, %22 ], [ 32767, %2 ], [ %47, %43 ]
  call void @llvm.va_end.p0(ptr nonnull %3)
  %.mask = and i32 %6, -16777216
  %49 = icmp eq i32 %.mask, 1644167168
  br i1 %49, label %50, label %52

50:                                               ; preds = %._crit_edge
  %51 = getelementptr inbounds nuw i8, ptr %0, i64 181
  store i8 1, ptr %51, align 1, !tbaa !41
  br label %52

52:                                               ; preds = %50, %._crit_edge
  %53 = lshr i32 %6, 16
  %54 = trunc nuw i32 %53 to i16
  %55 = trunc i32 %.1.lcssa to i16
  %56 = trunc i32 %1 to i16
  %57 = getelementptr inbounds nuw i8, ptr %0, i64 184
  %58 = getelementptr inbounds nuw i8, ptr %0, i64 188
  store i16 %54, ptr %58, align 4, !tbaa !33
  store i16 %55, ptr %57, align 8, !tbaa !33
  %59 = getelementptr inbounds nuw i8, ptr %0, i64 186
  store i16 %56, ptr %59, align 2, !tbaa !33
  %60 = call i32 @lj_opt_fold(ptr noundef %0) #13
  call void @llvm.lifetime.end.p0(i64 24, ptr nonnull %3) #13
  ret i32 %60
}